target datalayout = "e-m:e-p270:32:32-p271:32:32-p272:64:64-i64:64-i128:128-f80:128-n8:16:32:64-S128"
target triple = "x86_64-pc-linux-gnu"

%struct.xcgroup_ns_t = type { ptr, ptr, ptr, ptr }
%struct.xcgroup_t = type { ptr, ptr, ptr, i32, i32, i32 }

@int_cg_ns = internal global %struct.xcgroup_ns_t zeroinitializer, align 8
@int_cg = internal global [9 x %struct.xcgroup_t] zeroinitializer, align 16
@.str.7 = private unnamed_addr constant [8 x i8] c"/system\00", align 1
@.str.109 = private unnamed_addr constant [5 x i8] c"self\00", align 1
@.str.167 = private unnamed_addr constant [50 x i8] c"Cannot enable subtree_control at the top level %s\00", align 1
@.str.169 = private unnamed_addr constant [34 x i8] c"unable to create system cgroup %s\00", align 1
@.str.170 = private unnamed_addr constant [39 x i8] c"Unable to instantiate system %s cgroup\00", align 1
@.str.171 = private unnamed_addr constant [38 x i8] c"Unable to attach pid %d to %s cgroup.\00", align 1
@.str.172 = private unnamed_addr constant [95 x i8] c"Could not move slurmstepd pid %d to a Slurm's delegated cgroup. Should be in %s, we are in %s.\00", align 1

; Function Attrs: nounwind uwtable
define internal i32 @_init_stepd_system_scope(i32 noundef %0) #0 {
  %2 = alloca i32, align 4
  %3 = alloca i32, align 4
  %4 = alloca ptr, align 8
  %5 = alloca ptr, align 8
  %6 = alloca i32, align 4
  store i32 %0, ptr %3, align 4
  call void @llvm.lifetime.start.p0(i64 8, ptr %4) #10
  store ptr @.str.7, ptr %4, align 8
  call void @llvm.lifetime.start.p0(i64 8, ptr %5) #10
  %7 = load ptr, ptr %4, align 8
  %8 = call i32 @common_cgroup_create(ptr noundef @int_cg_ns, ptr noundef getelementptr inbounds ([9 x %struct.xcgroup_t], ptr @int_cg, i64 0, i64 8), ptr noundef %7, i32 noundef 0, i32 noundef 0)
  %9 = icmp ne i32 %8, 0
  br i1 %9, label %10, label %13

10:                                               ; preds = %1
  %11 = load ptr, ptr %4, align 8
  %12 = call i32 (ptr, ...) @error(ptr noundef @.str.169, ptr noundef %11)
  store i32 -1, ptr %2, align 4
  store i32 1, ptr %6, align 4
  br label %47

13:                                               ; preds = %1
  %14 = call i32 @common_cgroup_instantiate(ptr noundef getelementptr inbounds ([9 x %struct.xcgroup_t], ptr @int_cg, i64 0, i64 8))
  %15 = icmp ne i32 %14, 0
  br i1 %15, label %16, label %19

16:                                               ; preds = %13
  %17 = load ptr, ptr %4, align 8
  %18 = call i32 (ptr, ...) @error(ptr noundef @.str.170, ptr noundef %17)
  store i32 -1, ptr %2, align 4
  store i32 1, ptr %6, align 4
  br label %47

19:                                               ; preds = %13
  %20 = load i32, ptr %3, align 4
  %21 = call i32 @common_cgroup_move_process(ptr noundef getelementptr inbounds ([9 x %struct.xcgroup_t], ptr @int_cg, i64 0, i64 8), i32 noundef %20)
  %22 = icmp ne i32 %21, 0
  br i1 %22, label %23, label %27

23:                                               ; preds = %19
  %24 = load i32, ptr %3, align 4
  %25 = load ptr, ptr %4, align 8
  %26 = call i32 (ptr, ...) @error(ptr noundef @.str.171, i32 noundef %24, ptr noundef %25)
  store i32 -1, ptr %2, align 4
  store i32 1, ptr %6, align 4
  br label %47

27:                                               ; preds = %19
  %28 = call ptr @_get_proc_cg_path(ptr noundef @.str.109)
  store ptr %28, ptr %5, align 8
  %29 = load ptr, ptr %5, align 8
  %30 = load ptr, ptr getelementptr inbounds nuw (%struct.xcgroup_t, ptr getelementptr inbounds ([9 x %struct.xcgroup_t], ptr @int_cg, i64 0, i64 8), i32 0, i32 2), align 16
  %31 = call i32 @xstrcmp(ptr noundef %29, ptr noundef %30)
  %32 = icmp ne i32 %31, 0
  br i1 %32, label %33, label %38

33:                                               ; preds = %27
  %34 = load i32, ptr %3, align 4
  %35 = load ptr, ptr getelementptr inbounds nuw (%struct.xcgroup_t, ptr getelementptr inbounds ([9 x %struct.xcgroup_t], ptr @int_cg, i64 0, i64 8), i32 0, i32 2), align 16
  %36 = load ptr, ptr %5, align 8
  %37 = call i32 (ptr, ...) @error(ptr noundef @.str.172, i32 noundef %34, ptr noundef %35, ptr noundef %36)
  call void @slurm_xfree(ptr noundef %5)
  store i32 -1, ptr %2, align 4
  store i32 1, ptr %6, align 4
  br label %47

38:                                               ; preds = %27
  call void @slurm_xfree(ptr noundef %5)
  %39 = load ptr, ptr getelementptr inbounds nuw (%struct.xcgroup_t, ptr @int_cg, i32 0, i32 2), align 16
  %40 = load ptr, ptr @int_cg_ns, align 8
  %41 = call i32 @_enable_subtree_control(ptr noundef %39, ptr noundef %40)
  %42 = icmp ne i32 %41, 0
  br i1 %42, label %43, label %46

43:                                               ; preds = %38
  %44 = load ptr, ptr getelementptr inbounds nuw (%struct.xcgroup_ns_t, ptr @int_cg_ns, i32 0, i32 1), align 8
  %45 = call i32 (ptr, ...) @error(ptr noundef @.str.167, ptr noundef %44)
  store i32 -1, ptr %2, align 4
  store i32 1, ptr %6, align 4
  br label %47

46:                                               ; preds = %38
  store i32 0, ptr %2, align 4
  store i32 1, ptr %6, align 4
  br label %47

47:                                               ; preds = %46, %43, %33, %23, %16, %10
  call void @llvm.lifetime.end.p0(i64 8, ptr %5) #10
  call void @llvm.lifetime.end.p0(i64 8, ptr %4) #10
  %48 = load i32, ptr %2, align 4
  ret i32 %48
}