; Function Attrs: nounwind uwtable
define internal fastcc range(i32 -1, 1) i32 @_init_stepd_system_scope(i32 noundef %0) unnamed_addr #0 {
  %2 = alloca ptr, align 8
  call void @llvm.lifetime.start.p0(i64 8, ptr nonnull %2) #17
  %3 = tail call i32 @common_cgroup_create(ptr noundef nonnull @int_cg_ns, ptr noundef nonnull getelementptr inbounds nuw (i8, ptr @int_cg, i64 320), ptr noundef nonnull @.str.7, i32 noundef 0, i32 noundef 0) #17
  %.not = icmp eq i32 %3, 0
  br i1 %.not, label %6, label %4

4:                                                ; preds = %1
  %5 = tail call i32 (ptr, ...) @error(ptr noundef nonnull @.str.169, ptr noundef nonnull @.str.7) #17
  br label %28

6:                                                ; preds = %1
  %7 = tail call i32 @common_cgroup_instantiate(ptr noundef nonnull getelementptr inbounds nuw (i8, ptr @int_cg, i64 320)) #17
  %.not7 = icmp eq i32 %7, 0
  br i1 %.not7, label %10, label %8

8:                                                ; preds = %6
  %9 = tail call i32 (ptr, ...) @error(ptr noundef nonnull @.str.170, ptr noundef nonnull @.str.7) #17
  br label %28

10:                                               ; preds = %6
  %11 = tail call i32 @common_cgroup_move_process(ptr noundef nonnull getelementptr inbounds nuw (i8, ptr @int_cg, i64 320), i32 noundef %0) #17
  %.not8 = icmp eq i32 %11, 0
  br i1 %.not8, label %14, label %12

12:                                               ; preds = %10
  %13 = tail call i32 (ptr, ...) @error(ptr noundef nonnull @.str.171, i32 noundef %0, ptr noundef nonnull @.str.7) #17
  br label %28

14:                                               ; preds = %10
  %15 = tail call fastcc ptr @_get_proc_cg_path(ptr noundef nonnull @.str.109)
  store ptr %15, ptr %2, align 8
  %16 = load ptr, ptr getelementptr inbounds nuw (i8, ptr @int_cg, i64 336), align 16
  %17 = tail call i32 @xstrcmp(ptr noundef %15, ptr noundef %16) #17
  %.not9 = icmp eq i32 %17, 0
  br i1 %.not9, label %21, label %18

18:                                               ; preds = %14
  %19 = load ptr, ptr getelementptr inbounds nuw (i8, ptr @int_cg, i64 336), align 16
  %20 = tail call i32 (ptr, ...) @error(ptr noundef nonnull @.str.172, i32 noundef %0, ptr noundef %19, ptr noundef %15) #17
  call void @slurm_xfree(ptr noundef nonnull %2) #17
  br label %28

21:                                               ; preds = %14
  call void @slurm_xfree(ptr noundef nonnull %2) #17
  %22 = load ptr, ptr getelementptr inbounds nuw (i8, ptr @int_cg, i64 16), align 16
  %23 = load ptr, ptr @int_cg_ns, align 8
  %24 = call fastcc i32 @_enable_subtree_control(ptr noundef %22, ptr noundef %23)
  %.not10 = icmp eq i32 %24, 0
  br i1 %.not10, label %28, label %25

25:                                               ; preds = %21
  %26 = load ptr, ptr getelementptr inbounds nuw (i8, ptr @int_cg_ns, i64 8), align 8
  %27 = call i32 (ptr, ...) @error(ptr noundef nonnull @.str.167, ptr noundef %26) #17
  br label %28

28:                                               ; preds = %21, %25, %18, %12, %8, %4
  %.0 = phi i32 [ -1, %4 ], [ -1, %8 ], [ -1, %12 ], [ -1, %18 ], [ -1, %25 ], [ 0, %21 ]
  call void @llvm.lifetime.end.p0(i64 8, ptr nonnull %2) #17
  ret i32 %.0
}